ccopy_reg
_reconstructor
p1
(cargparse
Namespace
p2
c__builtin__
object
p3
NtRp4
(dp5
S'num_epochs'
p6
I50
sS'grad_clip'
p7
F5
sS'rnn_size'
p8
I30
sS'data_dir'
p9
S'corpus'
p10
sS'vocab_size'
p11
I3930
sS'learning_rate'
p12
F0.0050000000000000001
sS'save_dir'
p13
S'save'
p14
sS'init_from'
p15
NsS'seq_length'
p16
I20
sS'decay_rate'
p17
F0.97999999999999998
sS'gpu_mem'
p18
F0.66600000000000004
sS'batch_size'
p19
I10
sS'num_layers'
p20
I2
sS'save_every'
p21
I100
sb.